target datalayout = "e-m:e-p270:32:32-p271:32:32-p272:64:64-i64:64-i128:128-f80:128-n8:16:32:64-S128"
target triple = "x86_64-unknown-linux-gnu"

%"class.std::set.0" = type { %"class.std::_Rb_tree.1" }
%"class.std::_Rb_tree.1" = type { %"struct.std::_Rb_tree<QuantLib::Observer *, QuantLib::Observer *, std::_Identity<QuantLib::Observer *>, std::less<QuantLib::Observer *>>::_Rb_tree_impl" }
%"struct.std::_Rb_tree<QuantLib::Observer *, QuantLib::Observer *, std::_Identity<QuantLib::Observer *>, std::less<QuantLib::Observer *>>::_Rb_tree_impl" = type { [8 x i8], %"struct.std::_Rb_tree_header" }
%"struct.std::_Rb_tree_header" = type { %"struct.std::_Rb_tree_node_base", i64 }
%"struct.std::_Rb_tree_node_base" = type { i32, ptr, ptr, ptr }
%"class.std::set" = type { %"class.std::_Rb_tree" }
%"class.std::_Rb_tree" = type { %"struct.std::_Rb_tree<boost::shared_ptr<QuantLib::Observable>, boost::shared_ptr<QuantLib::Observable>, std::_Identity<boost::shared_ptr<QuantLib::Observable>>, std::less<boost::shared_ptr<QuantLib::Observable>>>::_Rb_tree_impl" }
%"struct.std::_Rb_tree<boost::shared_ptr<QuantLib::Observable>, boost::shared_ptr<QuantLib::Observable>, std::_Identity<boost::shared_ptr<QuantLib::Observable>>, std::less<boost::shared_ptr<QuantLib::Observable>>>::_Rb_tree_impl" = type { [8 x i8], %"struct.std::_Rb_tree_header" }
%"class.QuantLib::Observable" = type { ptr, %"class.std::set.0" }
%"class.QuantLib::Observer" = type { ptr, %"class.std::set" }
%"class.std::vector.35" = type { %"struct.std::_Vector_base.36" }
%"struct.std::_Vector_base.36" = type { %"struct.std::_Vector_base<double, std::allocator<double>>::_Vector_impl" }
%"struct.std::_Vector_base<double, std::allocator<double>>::_Vector_impl" = type { %"struct.std::_Vector_base<double, std::allocator<double>>::_Vector_impl_data" }
%"struct.std::_Vector_base<double, std::allocator<double>>::_Vector_impl_data" = type { ptr, ptr, ptr }
%"class.QuantLib::RangeAccrualPricer" = type { %"class.QuantLib::FloatingRateCouponPricer.base", ptr, double, double, double, %"class.std::vector.35", %"class.std::vector.35", %"class.std::vector.35", i64, double, double, double, double, double, double, %"class.QuantLib::Observer", %"class.QuantLib::Observable" }
%"class.QuantLib::FloatingRateCouponPricer.base" = type { ptr }

; Function Attrs: mustprogress nounwind uwtable
define linkonce_odr noundef nonnull align 8 dereferenceable(8) ptr @_ZNKSt6vectorIdSaIdEEixEm(ptr noundef nonnull align 8 dereferenceable(24) %this, i64 noundef %__n) #1 comdat align 2 {
entry:
  %this.addr = alloca ptr, align 8
  %__n.addr = alloca i64, align 8
  store ptr %this, ptr %this.addr, align 8, !tbaa !3
  store i64 %__n, ptr %__n.addr, align 8, !tbaa !53
  %this1 = load ptr, ptr %this.addr, align 8
  %_M_impl = getelementptr inbounds nuw %"struct.std::_Vector_base.36", ptr %this1, i32 0, i32 0
  %_M_start = getelementptr inbounds nuw %"struct.std::_Vector_base<double, std::allocator<double>>::_Vector_impl_data", ptr %_M_impl, i32 0, i32 0
  %0 = load ptr, ptr %_M_start, align 8, !tbaa !69
  %1 = load i64, ptr %__n.addr, align 8, !tbaa !53
  %add.ptr = getelementptr inbounds nuw double, ptr %0, i64 %1
  ret ptr %add.ptr
}

; Function Attrs: mustprogress uwtable
define noundef double @_ZNK8QuantLib23RangeAccrualPricerByBgm12swapletPriceEv(ptr noundef nonnull align 8 dereferenceable(224) %this) unnamed_addr #2 align 2 {
entry:
  %this.addr = alloca ptr, align 8
  %result = alloca double, align 8
  %deflator = alloca double, align 8
  %i = alloca i64, align 8
  %digitalFloater = alloca double, align 8
  store ptr %this, ptr %this.addr, align 8, !tbaa !3
  %this1 = load ptr, ptr %this.addr, align 8
  call void @llvm.lifetime.start.p0(i64 8, ptr %result) #18
  store double 0.000000e+00, ptr %result, align 8, !tbaa !31
  call void @llvm.lifetime.start.p0(i64 8, ptr %deflator) #18
  %discount_ = getelementptr inbounds nuw %"class.QuantLib::RangeAccrualPricer", ptr %this1, i32 0, i32 11
  %0 = load double, ptr %discount_, align 8, !tbaa !80
  %initialValues_ = getelementptr inbounds nuw %"class.QuantLib::RangeAccrualPricer", ptr %this1, i32 0, i32 7
  %call = call noundef nonnull align 8 dereferenceable(8) ptr @_ZNKSt6vectorIdSaIdEEixEm(ptr noundef nonnull align 8 dereferenceable(24) %initialValues_, i64 noundef 0) #18
  %1 = load double, ptr %call, align 8, !tbaa !31
  %mul = fmul double %0, %1
  store double %mul, ptr %deflator, align 8, !tbaa !31
  call void @llvm.lifetime.start.p0(i64 8, ptr %i) #18
  store i64 0, ptr %i, align 8, !tbaa !53
  br label %for.cond

for.cond:                                         ; preds = %for.inc, %entry
  %2 = load i64, ptr %i, align 8, !tbaa !53
  %observationsNo_ = getelementptr inbounds nuw %"class.QuantLib::RangeAccrualPricer", ptr %this1, i32 0, i32 8
  %3 = load i64, ptr %observationsNo_, align 8, !tbaa !87
  %cmp = icmp ult i64 %2, %3
  br i1 %cmp, label %for.body, label %for.cond.cleanup

for.cond.cleanup:                                 ; preds = %for.cond
  call void @llvm.lifetime.end.p0(i64 8, ptr %i) #18
  br label %for.end

for.body:                                         ; preds = %for.cond
  call void @llvm.lifetime.start.p0(i64 8, ptr %digitalFloater) #18
  %lowerTrigger_ = getelementptr inbounds nuw %"class.QuantLib::RangeAccrualPricer", ptr %this1, i32 0, i32 9
  %4 = load double, ptr %lowerTrigger_, align 8, !tbaa !85
  %upperTrigger_ = getelementptr inbounds nuw %"class.QuantLib::RangeAccrualPricer", ptr %this1, i32 0, i32 10
  %5 = load double, ptr %upperTrigger_, align 8, !tbaa !86
  %initialValues_2 = getelementptr inbounds nuw %"class.QuantLib::RangeAccrualPricer", ptr %this1, i32 0, i32 7
  %6 = load i64, ptr %i, align 8, !tbaa !53
  %add = add i64 %6, 1
  %call3 = call noundef nonnull align 8 dereferenceable(8) ptr @_ZNKSt6vectorIdSaIdEEixEm(ptr noundef nonnull align 8 dereferenceable(24) %initialValues_2, i64 noundef %add) #18
  %7 = load double, ptr %call3, align 8, !tbaa !31
  %observationTimes_ = getelementptr inbounds nuw %"class.QuantLib::RangeAccrualPricer", ptr %this1, i32 0, i32 6
  %8 = load i64, ptr %i, align 8, !tbaa !53
  %call4 = call noundef nonnull align 8 dereferenceable(8) ptr @_ZNKSt6vectorIdSaIdEEixEm(ptr noundef nonnull align 8 dereferenceable(24) %observationTimes_, i64 noundef %8) #18
  %9 = load double, ptr %call4, align 8, !tbaa !31
  %10 = load double, ptr %deflator, align 8, !tbaa !31
  %call5 = call noundef double @_ZNK8QuantLib23RangeAccrualPricerByBgm17digitalRangePriceEddddd(ptr noundef nonnull align 8 dereferenceable(224) %this1, double noundef %4, double noundef %5, double noundef %7, double noundef %9, double noundef %10)
  store double %call5, ptr %digitalFloater, align 8, !tbaa !31
  %11 = load double, ptr %digitalFloater, align 8, !tbaa !31
  %12 = load double, ptr %result, align 8, !tbaa !31
  %add6 = fadd double %12, %11
  store double %add6, ptr %result, align 8, !tbaa !31
  call void @llvm.lifetime.end.p0(i64 8, ptr %digitalFloater) #18
  br label %for.inc

for.inc:                                          ; preds = %for.body
  %13 = load i64, ptr %i, align 8, !tbaa !53
  %inc = add i64 %13, 1
  store i64 %inc, ptr %i, align 8, !tbaa !53
  br label %for.cond, !llvm.loop !98

for.end:                                          ; preds = %for.cond.cleanup
  %gearing_ = getelementptr inbounds nuw %"class.QuantLib::RangeAccrualPricer", ptr %this1, i32 0, i32 12
  %14 = load double, ptr %gearing_, align 8, !tbaa !78
  %15 = load double, ptr %result, align 8, !tbaa !31
  %accrualFactor_ = getelementptr inbounds nuw %"class.QuantLib::RangeAccrualPricer", ptr %this1, i32 0, i32 4
  %16 = load double, ptr %accrualFactor_, align 8, !tbaa !81
  %mul7 = fmul double %15, %16
  %observationsNo_8 = getelementptr inbounds nuw %"class.QuantLib::RangeAccrualPricer", ptr %this1, i32 0, i32 8
  %17 = load i64, ptr %observationsNo_8, align 8, !tbaa !87
  %conv = uitofp i64 %17 to double
  %div = fdiv double %mul7, %conv
  %spreadLegValue_ = getelementptr inbounds nuw %"class.QuantLib::RangeAccrualPricer", ptr %this1, i32 0, i32 14
  %18 = load double, ptr %spreadLegValue_, align 8, !tbaa !82
  %19 = call double @llvm.fmuladd.f64(double %14, double %div, double %18)
  call void @llvm.lifetime.end.p0(i64 8, ptr %deflator) #18
  call void @llvm.lifetime.end.p0(i64 8, ptr %result) #18
  ret double %19
}