; Function Attrs: mustprogress uwtable
define noundef double @_ZNK8QuantLib23RangeAccrualPricerByBgm12swapletPriceEv(ptr nocapture noundef nonnull readonly align 8 dereferenceable(224) %this) unnamed_addr #8 align 2 {
entry:
  %discount_ = getelementptr inbounds nuw i8, ptr %this, i64 136
  %0 = load double, ptr %discount_, align 8, !tbaa !112
  %initialValues_ = getelementptr inbounds nuw i8, ptr %this, i64 88
  %1 = load ptr, ptr %initialValues_, align 8, !tbaa !90
  %2 = load double, ptr %1, align 8, !tbaa !88
  %mul = fmul double %0, %2
  %observationsNo_ = getelementptr inbounds nuw i8, ptr %this, i64 112
  %3 = load i64, ptr %observationsNo_, align 8, !tbaa !119
  %cmp6.not = icmp eq i64 %3, 0
  br i1 %cmp6.not, label %for.cond.cleanup, label %for.body.lr.ph

for.body.lr.ph:                                   ; preds = %entry
  %lowerTrigger_ = getelementptr inbounds nuw i8, ptr %this, i64 120
  %upperTrigger_ = getelementptr inbounds nuw i8, ptr %this, i64 128
  %observationTimes_ = getelementptr inbounds nuw i8, ptr %this, i64 64
  br label %for.body

for.cond.cleanup.loopexit:                        ; preds = %for.body
  %4 = uitofp i64 %15 to double
  br label %for.cond.cleanup

for.cond.cleanup:                                 ; preds = %for.cond.cleanup.loopexit, %entry
  %result.0.lcssa = phi double [ 0.000000e+00, %entry ], [ %add6, %for.cond.cleanup.loopexit ]
  %.lcssa = phi double [ 0.000000e+00, %entry ], [ %4, %for.cond.cleanup.loopexit ]
  %gearing_ = getelementptr inbounds nuw i8, ptr %this, i64 144
  %5 = load double, ptr %gearing_, align 8, !tbaa !104
  %accrualFactor_ = getelementptr inbounds nuw i8, ptr %this, i64 32
  %6 = load double, ptr %accrualFactor_, align 8, !tbaa !113
  %mul7 = fmul double %result.0.lcssa, %6
  %div = fdiv double %mul7, %.lcssa
  %spreadLegValue_ = getelementptr inbounds nuw i8, ptr %this, i64 160
  %7 = load double, ptr %spreadLegValue_, align 8, !tbaa !114
  %8 = tail call double @llvm.fmuladd.f64(double %5, double %div, double %7)
  ret double %8

for.body:                                         ; preds = %for.body.lr.ph, %for.body
  %result.08 = phi double [ 0.000000e+00, %for.body.lr.ph ], [ %add6, %for.body ]
  %i.07 = phi i64 [ 0, %for.body.lr.ph ], [ %add, %for.body ]
  %9 = load double, ptr %lowerTrigger_, align 8, !tbaa !117
  %10 = load double, ptr %upperTrigger_, align 8, !tbaa !118
  %add = add nuw i64 %i.07, 1
  %11 = load ptr, ptr %initialValues_, align 8, !tbaa !90
  %add.ptr.i = getelementptr inbounds nuw double, ptr %11, i64 %add
  %12 = load double, ptr %add.ptr.i, align 8, !tbaa !88
  %13 = load ptr, ptr %observationTimes_, align 8, !tbaa !90
  %add.ptr.i5 = getelementptr inbounds nuw double, ptr %13, i64 %i.07
  %14 = load double, ptr %add.ptr.i5, align 8, !tbaa !88
  %call5 = tail call noundef double @_ZNK8QuantLib23RangeAccrualPricerByBgm17digitalRangePriceEddddd(ptr noundef nonnull align 8 dereferenceable(224) %this, double noundef %9, double noundef %10, double noundef %12, double noundef %14, double noundef %mul)
  %add6 = fadd double %result.08, %call5
  %15 = load i64, ptr %observationsNo_, align 8, !tbaa !119
  %cmp = icmp ult i64 %add, %15
  br i1 %cmp, label %for.body, label %for.cond.cleanup.loopexit, !llvm.loop !164
}